target datalayout = "e-m:e-p270:32:32-p271:32:32-p272:64:64-i64:64-i128:128-f80:128-n8:16:32:64-S128"
target triple = "x86_64-pc-linux-gnu"

%"class.std::__cxx11::basic_string" = type { %"struct.std::__cxx11::basic_string<char>::_Alloc_hider", i64, %union.anon }
%"struct.std::__cxx11::basic_string<char>::_Alloc_hider" = type { ptr }
%union.anon = type { i64, [8 x i8] }
%struct.stat = type { i64, i64, i64, i32, i32, i32, i32, i64, i64, i64, i64, %struct.timespec, %struct.timespec, %struct.timespec, [3 x i64] }
%struct.timespec = type { i64, i64 }

@_ZTIN3nix8SysErrorE = linkonce_odr constant { ptr, ptr, ptr } { ptr getelementptr inbounds (ptr, ptr @_ZTVN10__cxxabiv120__si_class_type_infoE, i64 2), ptr @_ZTSN3nix8SysErrorE, ptr @_ZTIN3nix11SystemErrorE }, comdat, align 8
@.str.7 = private unnamed_addr constant [24 x i8] c"getting status of '%1%'\00", align 1

; Function Attrs: mustprogress nounwind uwtable
define linkonce_odr noundef ptr @_ZNKSt7__cxx1112basic_stringIcSt11char_traitsIcESaIcEE7_M_dataEv(ptr noundef nonnull align 8 dereferenceable(32) %0) #2 comdat align 2 {
  %2 = alloca ptr, align 8
  store ptr %0, ptr %2, align 8
  %3 = load ptr, ptr %2, align 8
  %4 = getelementptr inbounds %"class.std::__cxx11::basic_string", ptr %3, i32 0, i32 0
  %5 = getelementptr inbounds %"struct.std::__cxx11::basic_string<char>::_Alloc_hider", ptr %4, i32 0, i32 0
  %6 = load ptr, ptr %5, align 8
  ret ptr %6
}

; Function Attrs: mustprogress nounwind uwtable
define linkonce_odr noundef ptr @_ZNKSt7__cxx1112basic_stringIcSt11char_traitsIcESaIcEE5c_strEv(ptr noundef nonnull align 8 dereferenceable(32) %0) #2 comdat align 2 {
  %2 = alloca ptr, align 8
  store ptr %0, ptr %2, align 8
  %3 = load ptr, ptr %2, align 8
  %4 = call noundef ptr @_ZNKSt7__cxx1112basic_stringIcSt11char_traitsIcESaIcEE7_M_dataEv(ptr noundef nonnull align 8 dereferenceable(32) %3)
  ret ptr %4
}

; Function Attrs: mustprogress uwtable
define void @_ZN3nix5lstatERKNSt7__cxx1112basic_stringIcSt11char_traitsIcESaIcEEE(ptr dead_on_unwind noalias writable sret(%struct.stat) align 8 %0, ptr noundef nonnull align 8 dereferenceable(32) %1) #3 personality ptr @__gxx_personality_v0 {
  %3 = alloca ptr, align 8
  %4 = alloca ptr, align 8
  %5 = alloca i32, align 4
  store ptr %1, ptr %3, align 8
  %6 = load ptr, ptr %3, align 8
  %7 = call noundef ptr @_ZNKSt7__cxx1112basic_stringIcSt11char_traitsIcESaIcEE5c_strEv(ptr noundef nonnull align 8 dereferenceable(32) %6) #1
  %8 = call i32 @lstat(ptr noundef %7, ptr noundef %0) #1
  %9 = icmp ne i32 %8, 0
  br i1 %9, label %10, label %18

10:                                               ; preds = %2
  %11 = call ptr @__cxa_allocate_exception(i64 384) #1
  %12 = load ptr, ptr %3, align 8
  invoke void @_ZN3nix8SysErrorC2IJA24_cNSt7__cxx1112basic_stringIcSt11char_traitsIcESaIcEEEEEEDpRKT_(ptr noundef nonnull align 8 dereferenceable(380) %11, ptr noundef nonnull align 1 dereferenceable(24) @.str.7, ptr noundef nonnull align 8 dereferenceable(32) %12)
          to label %13 unwind label %14

13:                                               ; preds = %10
  call void @__cxa_throw(ptr %11, ptr @_ZTIN3nix8SysErrorE, ptr @_ZN3nix8SysErrorD2Ev) #20
  unreachable

14:                                               ; preds = %10
  %15 = landingpad { ptr, i32 }
          cleanup
  %16 = extractvalue { ptr, i32 } %15, 0
  store ptr %16, ptr %4, align 8
  %17 = extractvalue { ptr, i32 } %15, 1
  store i32 %17, ptr %5, align 4
  call void @__cxa_free_exception(ptr %11) #1
  br label %19

18:                                               ; preds = %2
  ret void

19:                                               ; preds = %14
  %20 = load ptr, ptr %4, align 8
  %21 = load i32, ptr %5, align 4
  %22 = insertvalue { ptr, i32 } poison, ptr %20, 0
  %23 = insertvalue { ptr, i32 } %22, i32 %21, 1
  resume { ptr, i32 } %23
}

; Function Attrs: mustprogress uwtable
define noundef zeroext i8 @_ZN3nix11getFileTypeERKNSt7__cxx1112basic_stringIcSt11char_traitsIcESaIcEEE(ptr noundef nonnull align 8 dereferenceable(32) %0) #3 {
  %2 = alloca i8, align 1
  %3 = alloca ptr, align 8
  %4 = alloca %struct.stat, align 8
  store ptr %0, ptr %3, align 8
  %5 = load ptr, ptr %3, align 8
  call void @_ZN3nix5lstatERKNSt7__cxx1112basic_stringIcSt11char_traitsIcESaIcEEE(ptr dead_on_unwind writable sret(%struct.stat) align 8 %4, ptr noundef nonnull align 8 dereferenceable(32) %5)
  %6 = getelementptr inbounds %struct.stat, ptr %4, i32 0, i32 3
  %7 = load i32, ptr %6, align 8
  %8 = and i32 %7, 61440
  %9 = icmp eq i32 %8, 16384
  br i1 %9, label %10, label %11

10:                                               ; preds = %1
  store i8 4, ptr %2, align 1
  br label %24

11:                                               ; preds = %1
  %12 = getelementptr inbounds %struct.stat, ptr %4, i32 0, i32 3
  %13 = load i32, ptr %12, align 8
  %14 = and i32 %13, 61440
  %15 = icmp eq i32 %14, 40960
  br i1 %15, label %16, label %17

16:                                               ; preds = %11
  store i8 10, ptr %2, align 1
  br label %24

17:                                               ; preds = %11
  %18 = getelementptr inbounds %struct.stat, ptr %4, i32 0, i32 3
  %19 = load i32, ptr %18, align 8
  %20 = and i32 %19, 61440
  %21 = icmp eq i32 %20, 32768
  br i1 %21, label %22, label %23

22:                                               ; preds = %17
  store i8 8, ptr %2, align 1
  br label %24

23:                                               ; preds = %17
  store i8 0, ptr %2, align 1
  br label %24

24:                                               ; preds = %23, %22, %16, %10
  %25 = load i8, ptr %2, align 1
  ret i8 %25
}